; Function Attrs: mustprogress uwtable
define hidden void @_ZN2bv6solver7add_bitEiN3sat7literalE(ptr noundef nonnull align 8 dereferenceable(640) %0, i32 noundef %1, i32 %2) local_unnamed_addr #3 align 2 {
  %4 = getelementptr inbounds nuw i8, ptr %0, i64 456
  %5 = load ptr, ptr %4, align 8, !tbaa !53
  %6 = zext i32 %1 to i64
  %7 = getelementptr inbounds nuw %class.svector.5, ptr %5, i64 %6
  %8 = load ptr, ptr %7, align 8, !tbaa !50
  %9 = icmp eq ptr %8, null
  br i1 %9, label %_ZNK6vectorIN3sat7literalELb0EjE4sizeEv.exit.thread, label %10

10:                                               ; preds = %3
  %11 = getelementptr inbounds i8, ptr %8, i64 -4
  %12 = load i32, ptr %11, align 4, !tbaa !47
  %13 = getelementptr inbounds i8, ptr %8, i64 -8
  %14 = load i32, ptr %13, align 4, !tbaa !47
  %15 = icmp eq i32 %12, %14
  br i1 %15, label %_ZNK6vectorIN3sat7literalELb0EjE4sizeEv.exit.thread, label %_ZN6vectorIN3sat7literalELb0EjE9push_backERKS1_.exit

_ZNK6vectorIN3sat7literalELb0EjE4sizeEv.exit.thread: ; preds = %3, %10
  %.0.i11 = phi i32 [ %12, %10 ], [ 0, %3 ]
  tail call void @_ZN6vectorIN3sat7literalELb0EjE13expand_vectorEv(ptr noundef nonnull align 8 dereferenceable(8) %7)
  %.pre.i = load ptr, ptr %7, align 8, !tbaa !50
  %.phi.trans.insert.i = getelementptr inbounds i8, ptr %.pre.i, i64 -4
  %.pre2.i = load i32, ptr %.phi.trans.insert.i, align 4, !tbaa !47
  br label %_ZN6vectorIN3sat7literalELb0EjE9push_backERKS1_.exit

_ZN6vectorIN3sat7literalELb0EjE9push_backERKS1_.exit: ; preds = %10, %_ZNK6vectorIN3sat7literalELb0EjE4sizeEv.exit.thread
  %.0.i10 = phi i32 [ %.0.i11, %_ZNK6vectorIN3sat7literalELb0EjE4sizeEv.exit.thread ], [ %12, %10 ]
  %16 = phi i32 [ %.pre2.i, %_ZNK6vectorIN3sat7literalELb0EjE4sizeEv.exit.thread ], [ %12, %10 ]
  %17 = phi ptr [ %.pre.i, %_ZNK6vectorIN3sat7literalELb0EjE4sizeEv.exit.thread ], [ %8, %10 ]
  %18 = getelementptr inbounds i8, ptr %17, i64 -4
  %19 = zext i32 %16 to i64
  %20 = getelementptr inbounds nuw %"class.sat::literal", ptr %17, i64 %19
  store i32 %2, ptr %20, align 4, !tbaa !47
  %21 = add i32 %16, 1
  store i32 %21, ptr %18, align 4, !tbaa !47
  %22 = getelementptr inbounds nuw i8, ptr %0, i64 24
  %23 = load ptr, ptr %22, align 8, !tbaa !243
  %24 = lshr i32 %2, 1
  %25 = load ptr, ptr %23, align 8, !tbaa !42
  %26 = getelementptr inbounds nuw i8, ptr %25, i64 32
  %27 = load ptr, ptr %26, align 8
  tail call void %27(ptr noundef nonnull align 8 dereferenceable(4264) %23, i32 noundef %24)
  %28 = tail call noundef ptr @_ZNK3euf13th_euf_solver13bool_var2exprEj(ptr noundef nonnull align 8 dereferenceable(108) %0, i32 noundef %24)
  %.not.i = icmp ne ptr %28, null
  tail call void @llvm.assume(i1 %.not.i)
  %29 = tail call noundef ptr @_ZNK3euf13th_euf_solver10expr2enodeEP4expr(ptr noundef nonnull align 8 dereferenceable(108) %0, ptr noundef nonnull %28)
  %30 = getelementptr inbounds nuw i8, ptr %0, i64 12
  %31 = load i32, ptr %30, align 4, !tbaa !65
  %32 = getelementptr inbounds nuw i8, ptr %29, i64 88
  %33 = load i32, ptr %32, align 8
  %34 = icmp ugt i32 %33, -257
  br i1 %34, label %_ZNK3euf5enode14is_attached_toEi.exit.thread, label %.preheader.i.i.i.preheader

.preheader.i.i.i.preheader:                       ; preds = %_ZN6vectorIN3sat7literalELb0EjE9push_backERKS1_.exit
  %35 = shl i32 %33, 24
  %36 = ashr exact i32 %35, 24
  %37 = icmp eq i32 %31, %36
  br i1 %37, label %_ZNK3euf5enode14is_attached_toEi.exit.thread15, label %.lr.ph

.preheader.i.i.ithread-pre-split:                 ; preds = %.lr.ph
  %.pr = load i32, ptr %42, align 8
  %38 = shl i32 %.pr, 24
  %39 = ashr exact i32 %38, 24
  %40 = icmp eq i32 %31, %39
  br i1 %40, label %_ZNK3euf5enode14is_attached_toEi.exit, label %.lr.ph

.lr.ph:                                           ; preds = %.preheader.i.i.i.preheader, %.preheader.i.i.ithread-pre-split
  %.0.i.i.i14 = phi ptr [ %42, %.preheader.i.i.ithread-pre-split ], [ %32, %.preheader.i.i.i.preheader ]
  %41 = getelementptr inbounds nuw i8, ptr %.0.i.i.i14, i64 8
  %42 = load ptr, ptr %41, align 8, !tbaa !76
  %.not.i.i.i = icmp eq ptr %42, null
  br i1 %.not.i.i.i, label %_ZNK3euf5enode14is_attached_toEi.exit.thread, label %.preheader.i.i.ithread-pre-split, !llvm.loop !79

_ZNK3euf5enode14is_attached_toEi.exit:            ; preds = %.preheader.i.i.ithread-pre-split
  %43 = icmp ult i32 %.pr, -256
  br i1 %43, label %_ZNK3euf5enode14is_attached_toEi.exit.thread15, label %_ZNK3euf5enode14is_attached_toEi.exit.thread

_ZNK3euf5enode14is_attached_toEi.exit.thread:     ; preds = %.lr.ph, %_ZN6vectorIN3sat7literalELb0EjE9push_backERKS1_.exit, %_ZNK3euf5enode14is_attached_toEi.exit
  %44 = load ptr, ptr %0, align 8, !tbaa !42
  %45 = getelementptr inbounds nuw i8, ptr %44, i64 528
  %46 = load ptr, ptr %45, align 8
  %47 = tail call noundef i32 %46(ptr noundef nonnull align 8 dereferenceable(640) %0, ptr noundef nonnull %29)
  br label %_ZNK3euf5enode14is_attached_toEi.exit.thread15

_ZNK3euf5enode14is_attached_toEi.exit.thread15:   ; preds = %.preheader.i.i.i.preheader, %_ZNK3euf5enode14is_attached_toEi.exit.thread, %_ZNK3euf5enode14is_attached_toEi.exit
  tail call void @_ZN2bv6solver10set_bit_ehEiN3sat7literalEj(ptr noundef nonnull align 8 dereferenceable(640) %0, i32 noundef %1, i32 %2, i32 noundef %.0.i10)
  ret void
}